; Function Attrs: null_pointer_is_valid sspstrong uwtable
define hidden i32 @dissect_ndr_counted_string(ptr noundef %0, i32 noundef %1, ptr noundef %2, ptr noundef %3, ptr noundef %4, ptr noundef %5, i32 noundef %6, i32 noundef %7) local_unnamed_addr #0 {
  %9 = alloca ptr, align 8
  call void @llvm.lifetime.start.p0(i64 8, ptr nonnull %9) #9
  %10 = load i32, ptr @ett_nt_counted_string, align 4
  %11 = tail call ptr @proto_registrar_get_name(i32 noundef %6)
  %12 = call ptr @proto_tree_add_subtree(ptr noundef %3, ptr noundef %0, i32 noundef %1, i32 noundef 0, i32 noundef %10, ptr noundef nonnull %9, ptr noundef %11)
  %13 = add i32 %7, 2
  %14 = sext i32 %13 to i64
  %15 = inttoptr i64 %14 to ptr
  %16 = call i32 @dissect_ndr_counted_string_cb(ptr noundef %0, i32 noundef %1, ptr noundef %2, ptr noundef %12, ptr noundef %4, ptr noundef %5, i32 noundef %6, ptr noundef nonnull @cb_wstr_postprocess, ptr noundef %15)
  call void @llvm.lifetime.end.p0(i64 8, ptr nonnull %9) #9
  ret i32 %16
}